target datalayout = "e-m:e-p270:32:32-p271:32:32-p272:64:64-i64:64-i128:128-f80:128-n8:16:32:64-S128"
target triple = "x86_64-pc-linux-gnu"

%struct.PgStat_EntryRef = type { ptr, ptr, i32, ptr, %struct.dlist_node }
%struct.dlist_node = type { ptr, ptr }
%struct.PgStat_TableStatus = type { i32, i8, ptr, %struct.PgStat_TableCounts, ptr }
%struct.PgStat_TableCounts = type { i64, i64, i64, i64, i64, i64, i64, i64, i8, i64, i64, i64, i64, i64 }
%struct.TwoPhasePgStatRecord = type { i64, i64, i64, i64, i64, i64, i32, i8, i8 }

@MyDatabaseId = external global i32, align 4

; Function Attrs: nounwind uwtable
define internal ptr @pgstat_prep_relation_pending(i32 noundef %0, i1 noundef zeroext %1) #0 {
  %3 = alloca i32, align 4
  %4 = alloca i8, align 1
  %5 = alloca ptr, align 8
  %6 = alloca ptr, align 8
  store i32 %0, ptr %3, align 4
  %7 = zext i1 %1 to i8
  store i8 %7, ptr %4, align 1
  call void @llvm.lifetime.start.p0(i64 8, ptr %5) #6
  call void @llvm.lifetime.start.p0(i64 8, ptr %6) #6
  %8 = load i8, ptr %4, align 1, !range !4, !noundef !5
  %9 = trunc i8 %8 to i1
  br i1 %9, label %10, label %11

10:                                               ; preds = %2
  br label %13

11:                                               ; preds = %2
  %12 = load i32, ptr @MyDatabaseId, align 4
  br label %13

13:                                               ; preds = %11, %10
  %14 = phi i32 [ 0, %10 ], [ %12, %11 ]
  %15 = load i32, ptr %3, align 4
  %16 = zext i32 %15 to i64
  %17 = call ptr @pgstat_prep_pending_entry(i32 noundef 2, i32 noundef %14, i64 noundef %16, ptr noundef null)
  store ptr %17, ptr %5, align 8
  %18 = load ptr, ptr %5, align 8
  %19 = getelementptr inbounds nuw %struct.PgStat_EntryRef, ptr %18, i32 0, i32 3
  %20 = load ptr, ptr %19, align 8
  store ptr %20, ptr %6, align 8
  %21 = load i32, ptr %3, align 4
  %22 = load ptr, ptr %6, align 8
  %23 = getelementptr inbounds nuw %struct.PgStat_TableStatus, ptr %22, i32 0, i32 0
  store i32 %21, ptr %23, align 8
  %24 = load i8, ptr %4, align 1, !range !4, !noundef !5
  %25 = trunc i8 %24 to i1
  %26 = load ptr, ptr %6, align 8
  %27 = getelementptr inbounds nuw %struct.PgStat_TableStatus, ptr %26, i32 0, i32 1
  %28 = zext i1 %25 to i8
  store i8 %28, ptr %27, align 4
  %29 = load ptr, ptr %6, align 8
  call void @llvm.lifetime.end.p0(i64 8, ptr %6) #6
  call void @llvm.lifetime.end.p0(i64 8, ptr %5) #6
  ret ptr %29
}

; Function Attrs: nounwind uwtable
define dso_local void @pgstat_twophase_postabort(i32 noundef %0, i16 noundef zeroext %1, ptr noundef %2, i32 noundef %3) #0 {
  %5 = alloca i32, align 4
  %6 = alloca i16, align 2
  %7 = alloca ptr, align 8
  %8 = alloca i32, align 4
  %9 = alloca ptr, align 8
  %10 = alloca ptr, align 8
  store i32 %0, ptr %5, align 4
  store i16 %1, ptr %6, align 2
  store ptr %2, ptr %7, align 8
  store i32 %3, ptr %8, align 4
  call void @llvm.lifetime.start.p0(i64 8, ptr %9) #6
  %11 = load ptr, ptr %7, align 8
  store ptr %11, ptr %9, align 8
  call void @llvm.lifetime.start.p0(i64 8, ptr %10) #6
  %12 = load ptr, ptr %9, align 8
  %13 = getelementptr inbounds nuw %struct.TwoPhasePgStatRecord, ptr %12, i32 0, i32 6
  %14 = load i32, ptr %13, align 8
  %15 = load ptr, ptr %9, align 8
  %16 = getelementptr inbounds nuw %struct.TwoPhasePgStatRecord, ptr %15, i32 0, i32 7
  %17 = load i8, ptr %16, align 4, !range !4, !noundef !5
  %18 = trunc i8 %17 to i1
  %19 = call ptr @pgstat_prep_relation_pending(i32 noundef %14, i1 noundef zeroext %18)
  store ptr %19, ptr %10, align 8
  %20 = load ptr, ptr %9, align 8
  %21 = getelementptr inbounds nuw %struct.TwoPhasePgStatRecord, ptr %20, i32 0, i32 8
  %22 = load i8, ptr %21, align 1, !range !4, !noundef !5
  %23 = trunc i8 %22 to i1
  br i1 %23, label %24, label %40

24:                                               ; preds = %4
  %25 = load ptr, ptr %9, align 8
  %26 = getelementptr inbounds nuw %struct.TwoPhasePgStatRecord, ptr %25, i32 0, i32 3
  %27 = load i64, ptr %26, align 8
  %28 = load ptr, ptr %9, align 8
  %29 = getelementptr inbounds nuw %struct.TwoPhasePgStatRecord, ptr %28, i32 0, i32 0
  store i64 %27, ptr %29, align 8
  %30 = load ptr, ptr %9, align 8
  %31 = getelementptr inbounds nuw %struct.TwoPhasePgStatRecord, ptr %30, i32 0, i32 4
  %32 = load i64, ptr %31, align 8
  %33 = load ptr, ptr %9, align 8
  %34 = getelementptr inbounds nuw %struct.TwoPhasePgStatRecord, ptr %33, i32 0, i32 1
  store i64 %32, ptr %34, align 8
  %35 = load ptr, ptr %9, align 8
  %36 = getelementptr inbounds nuw %struct.TwoPhasePgStatRecord, ptr %35, i32 0, i32 5
  %37 = load i64, ptr %36, align 8
  %38 = load ptr, ptr %9, align 8
  %39 = getelementptr inbounds nuw %struct.TwoPhasePgStatRecord, ptr %38, i32 0, i32 2
  store i64 %37, ptr %39, align 8
  br label %40

40:                                               ; preds = %24, %4
  %41 = load ptr, ptr %9, align 8
  %42 = getelementptr inbounds nuw %struct.TwoPhasePgStatRecord, ptr %41, i32 0, i32 0
  %43 = load i64, ptr %42, align 8
  %44 = load ptr, ptr %10, align 8
  %45 = getelementptr inbounds nuw %struct.PgStat_TableStatus, ptr %44, i32 0, i32 3
  %46 = getelementptr inbounds nuw %struct.PgStat_TableCounts, ptr %45, i32 0, i32 3
  %47 = load i64, ptr %46, align 8
  %48 = add i64 %47, %43
  store i64 %48, ptr %46, align 8
  %49 = load ptr, ptr %9, align 8
  %50 = getelementptr inbounds nuw %struct.TwoPhasePgStatRecord, ptr %49, i32 0, i32 1
  %51 = load i64, ptr %50, align 8
  %52 = load ptr, ptr %10, align 8
  %53 = getelementptr inbounds nuw %struct.PgStat_TableStatus, ptr %52, i32 0, i32 3
  %54 = getelementptr inbounds nuw %struct.PgStat_TableCounts, ptr %53, i32 0, i32 4
  %55 = load i64, ptr %54, align 8
  %56 = add i64 %55, %51
  store i64 %56, ptr %54, align 8
  %57 = load ptr, ptr %9, align 8
  %58 = getelementptr inbounds nuw %struct.TwoPhasePgStatRecord, ptr %57, i32 0, i32 2
  %59 = load i64, ptr %58, align 8
  %60 = load ptr, ptr %10, align 8
  %61 = getelementptr inbounds nuw %struct.PgStat_TableStatus, ptr %60, i32 0, i32 3
  %62 = getelementptr inbounds nuw %struct.PgStat_TableCounts, ptr %61, i32 0, i32 5
  %63 = load i64, ptr %62, align 8
  %64 = add i64 %63, %59
  store i64 %64, ptr %62, align 8
  %65 = load ptr, ptr %9, align 8
  %66 = getelementptr inbounds nuw %struct.TwoPhasePgStatRecord, ptr %65, i32 0, i32 0
  %67 = load i64, ptr %66, align 8
  %68 = load ptr, ptr %9, align 8
  %69 = getelementptr inbounds nuw %struct.TwoPhasePgStatRecord, ptr %68, i32 0, i32 1
  %70 = load i64, ptr %69, align 8
  %71 = add i64 %67, %70
  %72 = load ptr, ptr %10, align 8
  %73 = getelementptr inbounds nuw %struct.PgStat_TableStatus, ptr %72, i32 0, i32 3
  %74 = getelementptr inbounds nuw %struct.PgStat_TableCounts, ptr %73, i32 0, i32 10
  %75 = load i64, ptr %74, align 8
  %76 = add i64 %75, %71
  store i64 %76, ptr %74, align 8
  call void @llvm.lifetime.end.p0(i64 8, ptr %10) #6
  call void @llvm.lifetime.end.p0(i64 8, ptr %9) #6
  ret void
}