; Function Attrs: nounwind uwtable
define dso_local void @pgstat_twophase_postabort(i32 noundef %0, i16 noundef zeroext %1, ptr noundef captures(none) %2, i32 noundef %3) local_unnamed_addr #0 {
  %5 = getelementptr inbounds nuw i8, ptr %2, i64 48
  %6 = load i32, ptr %5, align 8
  %7 = getelementptr inbounds nuw i8, ptr %2, i64 52
  %8 = load i8, ptr %7, align 4, !range !4, !noundef !5
  %9 = trunc nuw i8 %8 to i1
  %10 = load i32, ptr @MyDatabaseId, align 4
  %11 = select i1 %9, i32 0, i32 %10
  %12 = zext i32 %6 to i64
  %13 = tail call ptr @pgstat_prep_pending_entry(i32 noundef 2, i32 noundef %11, i64 noundef %12, ptr noundef null) #9
  %14 = getelementptr inbounds nuw i8, ptr %13, i64 24
  %15 = load ptr, ptr %14, align 8
  store i32 %6, ptr %15, align 8
  %16 = getelementptr inbounds nuw i8, ptr %15, i64 4
  store i8 %8, ptr %16, align 4
  %17 = getelementptr inbounds nuw i8, ptr %2, i64 53
  %18 = load i8, ptr %17, align 1, !range !4, !noundef !5
  %19 = trunc nuw i8 %18 to i1
  br i1 %19, label %20, label %._crit_edge

._crit_edge:                                      ; preds = %4
  %.pre = load i64, ptr %2, align 8
  br label %29

20:                                               ; preds = %4
  %21 = getelementptr inbounds nuw i8, ptr %2, i64 24
  %22 = load i64, ptr %21, align 8
  store i64 %22, ptr %2, align 8
  %23 = getelementptr inbounds nuw i8, ptr %2, i64 32
  %24 = load i64, ptr %23, align 8
  %25 = getelementptr inbounds nuw i8, ptr %2, i64 8
  store i64 %24, ptr %25, align 8
  %26 = getelementptr inbounds nuw i8, ptr %2, i64 40
  %27 = load i64, ptr %26, align 8
  %28 = getelementptr inbounds nuw i8, ptr %2, i64 16
  store i64 %27, ptr %28, align 8
  br label %29

29:                                               ; preds = %._crit_edge, %20
  %30 = phi i64 [ %.pre, %._crit_edge ], [ %22, %20 ]
  %31 = getelementptr inbounds nuw i8, ptr %15, i64 40
  %32 = load i64, ptr %31, align 8
  %33 = add i64 %32, %30
  store i64 %33, ptr %31, align 8
  %34 = getelementptr inbounds nuw i8, ptr %2, i64 8
  %35 = load i64, ptr %34, align 8
  %36 = getelementptr inbounds nuw i8, ptr %15, i64 48
  %37 = load i64, ptr %36, align 8
  %38 = add i64 %37, %35
  store i64 %38, ptr %36, align 8
  %39 = getelementptr inbounds nuw i8, ptr %2, i64 16
  %40 = load i64, ptr %39, align 8
  %41 = getelementptr inbounds nuw i8, ptr %15, i64 56
  %42 = load i64, ptr %41, align 8
  %43 = add i64 %42, %40
  store i64 %43, ptr %41, align 8
  %44 = load i64, ptr %2, align 8
  %45 = load i64, ptr %34, align 8
  %46 = add i64 %45, %44
  %47 = getelementptr inbounds nuw i8, ptr %15, i64 96
  %48 = load i64, ptr %47, align 8
  %49 = add i64 %46, %48
  store i64 %49, ptr %47, align 8
  ret void
}